target datalayout = "e-m:e-p270:32:32-p271:32:32-p272:64:64-i64:64-i128:128-f80:128-n8:16:32:64-S128"
target triple = "x86_64-pc-linux-gnu"

; Function Attrs: noinline nounwind uwtable
define internal ptr @pg_qsort_med3(ptr noundef %0, ptr noundef %1, ptr noundef %2, ptr noundef %3) #3 {
  %5 = alloca ptr, align 8
  %6 = alloca ptr, align 8
  %7 = alloca ptr, align 8
  %8 = alloca ptr, align 8
  store ptr %0, ptr %5, align 8
  store ptr %1, ptr %6, align 8
  store ptr %2, ptr %7, align 8
  store ptr %3, ptr %8, align 8
  %9 = load ptr, ptr %8, align 8
  %10 = load ptr, ptr %5, align 8
  %11 = load ptr, ptr %6, align 8
  %12 = call i32 %9(ptr noundef %10, ptr noundef %11)
  %13 = icmp slt i32 %12, 0
  br i1 %13, label %14, label %36

14:                                               ; preds = %4
  %15 = load ptr, ptr %8, align 8
  %16 = load ptr, ptr %6, align 8
  %17 = load ptr, ptr %7, align 8
  %18 = call i32 %15(ptr noundef %16, ptr noundef %17)
  %19 = icmp slt i32 %18, 0
  br i1 %19, label %20, label %22

20:                                               ; preds = %14
  %21 = load ptr, ptr %6, align 8
  br label %34

22:                                               ; preds = %14
  %23 = load ptr, ptr %8, align 8
  %24 = load ptr, ptr %5, align 8
  %25 = load ptr, ptr %7, align 8
  %26 = call i32 %23(ptr noundef %24, ptr noundef %25)
  %27 = icmp slt i32 %26, 0
  br i1 %27, label %28, label %30

28:                                               ; preds = %22
  %29 = load ptr, ptr %7, align 8
  br label %32

30:                                               ; preds = %22
  %31 = load ptr, ptr %5, align 8
  br label %32

32:                                               ; preds = %30, %28
  %33 = phi ptr [ %29, %28 ], [ %31, %30 ]
  br label %34

34:                                               ; preds = %32, %20
  %35 = phi ptr [ %21, %20 ], [ %33, %32 ]
  br label %58

36:                                               ; preds = %4
  %37 = load ptr, ptr %8, align 8
  %38 = load ptr, ptr %6, align 8
  %39 = load ptr, ptr %7, align 8
  %40 = call i32 %37(ptr noundef %38, ptr noundef %39)
  %41 = icmp sgt i32 %40, 0
  br i1 %41, label %42, label %44

42:                                               ; preds = %36
  %43 = load ptr, ptr %6, align 8
  br label %56

44:                                               ; preds = %36
  %45 = load ptr, ptr %8, align 8
  %46 = load ptr, ptr %5, align 8
  %47 = load ptr, ptr %7, align 8
  %48 = call i32 %45(ptr noundef %46, ptr noundef %47)
  %49 = icmp slt i32 %48, 0
  br i1 %49, label %50, label %52

50:                                               ; preds = %44
  %51 = load ptr, ptr %5, align 8
  br label %54

52:                                               ; preds = %44
  %53 = load ptr, ptr %7, align 8
  br label %54

54:                                               ; preds = %52, %50
  %55 = phi ptr [ %51, %50 ], [ %53, %52 ]
  br label %56

56:                                               ; preds = %54, %42
  %57 = phi ptr [ %43, %42 ], [ %55, %54 ]
  br label %58

58:                                               ; preds = %56, %34
  %59 = phi ptr [ %35, %34 ], [ %57, %56 ]
  ret ptr %59
}