; Function Attrs: noinline nounwind uwtable
define internal fastcc ptr @pg_qsort_med3(ptr noundef %0, ptr noundef %1, ptr noundef %2, ptr noundef readonly captures(none) %3) unnamed_addr #1 {
  %5 = tail call i32 %3(ptr noundef %0, ptr noundef %1) #5
  %6 = icmp slt i32 %5, 0
  %7 = tail call i32 %3(ptr noundef %1, ptr noundef %2) #5
  br i1 %6, label %8, label %14

8:                                                ; preds = %4
  %9 = icmp slt i32 %7, 0
  br i1 %9, label %20, label %10

10:                                               ; preds = %8
  %11 = tail call i32 %3(ptr noundef %0, ptr noundef %2) #5
  %12 = icmp slt i32 %11, 0
  %13 = select i1 %12, ptr %2, ptr %0
  br label %20

14:                                               ; preds = %4
  %15 = icmp sgt i32 %7, 0
  br i1 %15, label %20, label %16

16:                                               ; preds = %14
  %17 = tail call i32 %3(ptr noundef %0, ptr noundef %2) #5
  %18 = icmp slt i32 %17, 0
  %19 = select i1 %18, ptr %0, ptr %2
  br label %20

20:                                               ; preds = %14, %8, %16, %10
  %21 = phi ptr [ %13, %10 ], [ %19, %16 ], [ %1, %8 ], [ %1, %14 ]
  ret ptr %21
}